; Function Attrs: mustprogress nofree norecurse nosync nounwind willreturn memory(argmem: read) uwtable
define range(i32 0, 2) i32 @wolfSSL_SessionIsSetup(ptr noundef readonly captures(address_is_null) %0) local_unnamed_addr #9 {
  %.not = icmp eq ptr %0, null
  br i1 %.not, label %7, label %2

2:                                                ; preds = %1
  %3 = getelementptr inbounds nuw i8, ptr %0, i64 226
  %4 = load i8, ptr %3, align 2
  %5 = and i8 %4, 1
  %6 = zext nneg i8 %5 to i32
  br label %7

7:                                                ; preds = %1, %2
  %.0 = phi i32 [ %6, %2 ], [ 0, %1 ]
  ret i32 %.0
}